; Function Attrs: mustprogress uwtable
define internal void @_ZN32pxrInternal_v0_24__pxrReserved__L22_Tf_RegistryFunction17EPNS_6TfTypeEPv(ptr nocapture readnone %0, ptr nocapture readnone %1) #0 personality ptr @__gxx_personality_v0 {
  %3 = alloca %"struct.pxrInternal_v0_24__pxrReserved__::Tf_BaseTypeInfos", align 8
  %4 = alloca %"struct.pxrInternal_v0_24__pxrReserved__::Tf_TypeCastFunctions", align 8
  %5 = alloca %"class.std::__cxx11::basic_string", align 8
  %6 = alloca %"class.std::allocator.84", align 1
  call void @llvm.lifetime.start.p0(i64 8, ptr nonnull %3)
  call void @llvm.lifetime.start.p0(i64 8, ptr nonnull %4)
  store ptr @_ZTIN32pxrInternal_v0_24__pxrReserved__13UsdGeomCurvesE, ptr %3, align 8
  store ptr @_ZN32pxrInternal_v0_24__pxrReserved__15Tf_CastToParentINS_18UsdGeomNurbsCurvesENS_13UsdGeomCurvesEEEPvS3_b, ptr %4, align 8
  %7 = call noundef nonnull align 8 dereferenceable(8) ptr @_ZN32pxrInternal_v0_24__pxrReserved__6TfType11_DefineImplERKSt9type_infoPPS2_PPFPvS6_bEmmbb(ptr noundef nonnull align 8 dereferenceable(16) @_ZTIN32pxrInternal_v0_24__pxrReserved__18UsdGeomNurbsCurvesE, ptr noundef nonnull %3, ptr noundef nonnull %4, i64 noundef 1, i64 noundef 24, i1 noundef zeroext false, i1 noundef zeroext false)
  call void @llvm.lifetime.end.p0(i64 8, ptr nonnull %3)
  call void @llvm.lifetime.end.p0(i64 8, ptr nonnull %4)
  call void @_ZNSaIcEC1Ev(ptr noundef nonnull align 1 dereferenceable(1) %6) #15
  %8 = invoke noundef ptr @_ZNSt7__cxx1112basic_stringIcSt11char_traitsIcESaIcEE13_M_local_dataEv(ptr noundef nonnull align 8 dereferenceable(32) %5)
          to label %.noexc unwind label %12

.noexc:                                           ; preds = %2
  invoke void @_ZNSt7__cxx1112basic_stringIcSt11char_traitsIcESaIcEE12_Alloc_hiderC1EPcRKS3_(ptr noundef nonnull align 8 dereferenceable(8) %5, ptr noundef %8, ptr noundef nonnull align 1 dereferenceable(1) %6)
          to label %.noexc3 unwind label %12

.noexc3:                                          ; preds = %.noexc
  invoke void @_ZNSt7__cxx1112basic_stringIcSt11char_traitsIcESaIcEE12_M_constructIPKcEEvT_S8_St20forward_iterator_tag(ptr noundef nonnull align 8 dereferenceable(32) %5, ptr noundef nonnull @.str.4, ptr noundef nonnull getelementptr inbounds (i8, ptr @.str.4, i64 11))
          to label %_ZNSt7__cxx1112basic_stringIcSt11char_traitsIcESaIcEEC2IS3_EEPKcRKS3_.exit unwind label %9

9:                                                ; preds = %.noexc3
  %10 = landingpad { ptr, i32 }
          cleanup
  call void @_ZNSaIcED2Ev(ptr noundef nonnull align 1 dereferenceable(1) %5) #15
  br label %.body

_ZNSt7__cxx1112basic_stringIcSt11char_traitsIcESaIcEEC2IS3_EEPKcRKS3_.exit: ; preds = %.noexc3
  invoke void @_ZN32pxrInternal_v0_24__pxrReserved__6TfType8AddAliasINS_13UsdSchemaBaseENS_18UsdGeomNurbsCurvesEEEvRKNSt7__cxx1112basic_stringIcSt11char_traitsIcESaIcEEE(ptr noundef nonnull align 8 dereferenceable(32) %5)
          to label %11 unwind label %14

11:                                               ; preds = %_ZNSt7__cxx1112basic_stringIcSt11char_traitsIcESaIcEEC2IS3_EEPKcRKS3_.exit
  call void @_ZNSt7__cxx1112basic_stringIcSt11char_traitsIcESaIcEED1Ev(ptr noundef nonnull align 8 dereferenceable(32) %5) #15
  call void @_ZNSaIcED1Ev(ptr noundef nonnull align 1 dereferenceable(1) %6) #15
  ret void

12:                                               ; preds = %.noexc, %2
  %13 = landingpad { ptr, i32 }
          cleanup
  br label %.body

14:                                               ; preds = %_ZNSt7__cxx1112basic_stringIcSt11char_traitsIcESaIcEEC2IS3_EEPKcRKS3_.exit
  %15 = landingpad { ptr, i32 }
          cleanup
  call void @_ZNSt7__cxx1112basic_stringIcSt11char_traitsIcESaIcEED1Ev(ptr noundef nonnull align 8 dereferenceable(32) %5) #15
  br label %.body

.body:                                            ; preds = %12, %9, %14
  %.pn = phi { ptr, i32 } [ %15, %14 ], [ %13, %12 ], [ %10, %9 ]
  call void @_ZNSaIcED1Ev(ptr noundef nonnull align 1 dereferenceable(1) %6) #15
  resume { ptr, i32 } %.pn
}